target datalayout = "e-m:e-p270:32:32-p271:32:32-p272:64:64-i64:64-i128:128-f80:128-n8:16:32:64-S128"
target triple = "x86_64-pc-linux-gnu"

%struct.CCFifo = type { ptr, ptr, %struct.AVRational, i32, i32, i32, i32, i32, ptr }
%struct.AVRational = type { i32, i32 }
%struct.AVFrameSideData = type { i32, ptr, i64, ptr, ptr }

; Function Attrs: inlinehint nounwind uwtable
define internal i32 @ff_ccfifo_getoutputsize(ptr noundef %0) #5 {
  %2 = alloca ptr, align 8
  store ptr %0, ptr %2, align 8, !tbaa !4
  %3 = load ptr, ptr %2, align 8, !tbaa !4
  %4 = getelementptr inbounds nuw %struct.CCFifo, ptr %3, i32 0, i32 3
  %5 = load i32, ptr %4, align 8, !tbaa !25
  %6 = mul nsw i32 %5, 3
  ret i32 %6
}

; Function Attrs: nounwind uwtable
define i32 @ff_ccfifo_inject(ptr noundef %0, ptr noundef %1) #0 {
  %3 = alloca i32, align 4
  %4 = alloca ptr, align 8
  %5 = alloca ptr, align 8
  %6 = alloca ptr, align 8
  %7 = alloca i32, align 4
  %8 = alloca i32, align 4
  store ptr %0, ptr %4, align 8, !tbaa !4
  store ptr %1, ptr %5, align 8, !tbaa !37
  call void @llvm.lifetime.start.p0(i64 8, ptr %6) #6
  call void @llvm.lifetime.start.p0(i64 4, ptr %7) #6
  %9 = load ptr, ptr %4, align 8, !tbaa !4
  %10 = getelementptr inbounds nuw %struct.CCFifo, ptr %9, i32 0, i32 6
  %11 = load i32, ptr %10, align 4, !tbaa !30
  %12 = icmp eq i32 %11, 1
  br i1 %12, label %18, label %13

13:                                               ; preds = %2
  %14 = load ptr, ptr %4, align 8, !tbaa !4
  %15 = getelementptr inbounds nuw %struct.CCFifo, ptr %14, i32 0, i32 5
  %16 = load i32, ptr %15, align 8, !tbaa !39
  %17 = icmp eq i32 %16, 0
  br i1 %17, label %18, label %19

18:                                               ; preds = %13, %2
  store i32 0, ptr %3, align 4
  store i32 1, ptr %8, align 4
  br label %43

19:                                               ; preds = %13
  %20 = load ptr, ptr %5, align 8, !tbaa !37
  %21 = load ptr, ptr %4, align 8, !tbaa !4
  %22 = call i32 @ff_ccfifo_getoutputsize(ptr noundef %21)
  %23 = sext i32 %22 to i64
  %24 = call ptr @av_frame_new_side_data(ptr noundef %20, i32 noundef 1, i64 noundef %23)
  store ptr %24, ptr %6, align 8, !tbaa !40
  %25 = load ptr, ptr %6, align 8, !tbaa !40
  %26 = icmp ne ptr %25, null
  br i1 %26, label %27, label %42

27:                                               ; preds = %19
  %28 = load ptr, ptr %4, align 8, !tbaa !4
  %29 = load ptr, ptr %6, align 8, !tbaa !40
  %30 = getelementptr inbounds nuw %struct.AVFrameSideData, ptr %29, i32 0, i32 1
  %31 = load ptr, ptr %30, align 8, !tbaa !42
  %32 = load ptr, ptr %6, align 8, !tbaa !40
  %33 = getelementptr inbounds nuw %struct.AVFrameSideData, ptr %32, i32 0, i32 2
  %34 = load i64, ptr %33, align 8, !tbaa !46
  %35 = call i32 @ff_ccfifo_injectbytes(ptr noundef %28, ptr noundef %31, i64 noundef %34)
  store i32 %35, ptr %7, align 4, !tbaa !16
  %36 = load i32, ptr %7, align 4, !tbaa !16
  %37 = icmp slt i32 %36, 0
  br i1 %37, label %38, label %41

38:                                               ; preds = %27
  %39 = load ptr, ptr %5, align 8, !tbaa !37
  call void @av_frame_remove_side_data(ptr noundef %39, i32 noundef 1)
  %40 = load i32, ptr %7, align 4, !tbaa !16
  store i32 %40, ptr %3, align 4
  store i32 1, ptr %8, align 4
  br label %43

41:                                               ; preds = %27
  br label %42

42:                                               ; preds = %41, %19
  store i32 0, ptr %3, align 4
  store i32 1, ptr %8, align 4
  br label %43

43:                                               ; preds = %42, %38, %18
  call void @llvm.lifetime.end.p0(i64 4, ptr %7) #6
  call void @llvm.lifetime.end.p0(i64 8, ptr %6) #6
  %44 = load i32, ptr %3, align 4
  ret i32 %44
}