; Function Attrs: nounwind uwtable
define range(i32 -22, 1) i32 @ff_ccfifo_inject(ptr noundef readonly captures(none) %0, ptr noundef %1) local_unnamed_addr #0 {
  %3 = getelementptr inbounds nuw i8, ptr %0, i64 36
  %4 = load i32, ptr %3, align 4, !tbaa !24
  %5 = icmp eq i32 %4, 1
  br i1 %5, label %23, label %6

6:                                                ; preds = %2
  %7 = getelementptr inbounds nuw i8, ptr %0, i64 32
  %8 = load i32, ptr %7, align 8, !tbaa !27
  %9 = icmp eq i32 %8, 0
  br i1 %9, label %23, label %10

10:                                               ; preds = %6
  %11 = getelementptr i8, ptr %0, i64 24
  %.val = load i32, ptr %11, align 8, !tbaa !19
  %12 = mul nsw i32 %.val, 3
  %13 = sext i32 %12 to i64
  %14 = tail call ptr @av_frame_new_side_data(ptr noundef %1, i32 noundef 1, i64 noundef %13) #3
  %.not = icmp eq ptr %14, null
  br i1 %.not, label %23, label %15

15:                                               ; preds = %10
  %16 = getelementptr inbounds nuw i8, ptr %14, i64 8
  %17 = load ptr, ptr %16, align 8, !tbaa !28
  %18 = getelementptr inbounds nuw i8, ptr %14, i64 16
  %19 = load i64, ptr %18, align 8, !tbaa !34
  %20 = tail call i32 @ff_ccfifo_injectbytes(ptr noundef nonnull %0, ptr noundef %17, i64 noundef %19)
  %21 = icmp slt i32 %20, 0
  br i1 %21, label %22, label %23

22:                                               ; preds = %15
  tail call void @av_frame_remove_side_data(ptr noundef %1, i32 noundef 1) #3
  br label %23

23:                                               ; preds = %10, %15, %2, %6, %22
  %.0 = phi i32 [ %20, %22 ], [ 0, %6 ], [ 0, %2 ], [ 0, %15 ], [ 0, %10 ]
  ret i32 %.0
}